; ModuleID = '30/3347.c'
source_filename = "30/3347.c"
target datalayout = "e-m:e-p270:32:32-p271:32:32-p272:64:64-i64:64-f80:128-n8:16:32:64-S128"
target triple = "x86_64-pc-linux-gnu"

@.str = private unnamed_addr constant [3 x i8] c"%d\00", align 1

; Function Attrs: noinline nounwind uwtable
define dso_local i32 @main() #0 {
  %1 = alloca i32, align 4
  %2 = alloca i32, align 4
  %3 = alloca i32, align 4
  %4 = alloca i32, align 4
  %5 = alloca i32, align 4
  store i32 0, i32* %1, align 4
  store i32 0, i32* %3, align 4
  store i32 0, i32* %4, align 4
  %6 = call i32 (i8*, ...) @__isoc99_scanf(i8* getelementptr inbounds ([3 x i8], [3 x i8]* @.str, i64 0, i64 0), i32* %5)
  store i32 1, i32* %2, align 4
  br label %7

7:                                                ; preds = %38, %0
  %8 = load i32, i32* %2, align 4
  %9 = load i32, i32* %5, align 4
  %10 = icmp sle i32 %8, %9
  br i1 %10, label %11, label %41

11:                                               ; preds = %7
  %12 = load i32, i32* %2, align 4
  %13 = load i32, i32* %2, align 4
  %14 = mul nsw i32 %12, %13
  %15 = load i32, i32* %3, align 4
  %16 = add nsw i32 %15, %14
  store i32 %16, i32* %3, align 4
  %17 = load i32, i32* %2, align 4
  %18 = srem i32 %17, 7
  %19 = icmp eq i32 %18, 0
  br i1 %19, label %31, label %20

20:                                               ; preds = %11
  %21 = load i32, i32* %2, align 4
  %22 = sub nsw i32 %21, 7
  %23 = srem i32 %22, 10
  %24 = icmp eq i32 %23, 0
  br i1 %24, label %31, label %25

25:                                               ; preds = %20
  %26 = load i32, i32* %2, align 4
  %27 = icmp sge i32 %26, 70
  br i1 %27, label %28, label %37

28:                                               ; preds = %25
  %29 = load i32, i32* %2, align 4
  %30 = icmp sle i32 %29, 79
  br i1 %30, label %31, label %37

31:                                               ; preds = %28, %20, %11
  %32 = load i32, i32* %2, align 4
  %33 = load i32, i32* %2, align 4
  %34 = mul nsw i32 %32, %33
  %35 = load i32, i32* %4, align 4
  %36 = add nsw i32 %35, %34
  store i32 %36, i32* %4, align 4
  br label %37

37:                                               ; preds = %31, %28, %25
  br label %38

38:                                               ; preds = %37
  %39 = load i32, i32* %2, align 4
  %40 = add nsw i32 %39, 1
  store i32 %40, i32* %2, align 4
  br label %7

41:                                               ; preds = %7
  %42 = load i32, i32* %3, align 4
  %43 = load i32, i32* %4, align 4
  %44 = sub nsw i32 %42, %43
  %45 = call i32 (i8*, ...) @printf(i8* getelementptr inbounds ([3 x i8], [3 x i8]* @.str, i64 0, i64 0), i32 %44)
  ret i32 0
}

declare dso_local i32 @__isoc99_scanf(i8*, ...) #1

declare dso_local i32 @printf(i8*, ...) #1


!llvm.module.flags = !{!0}
!llvm.ident = !{!1}

!0 = !{i32 1, !"wchar_size", i32 4}
!1 = !{!"clang version 10.0.0-4ubuntu1 "}
