; ModuleID = 'source-C-CXX/29/3347.c'
source_filename = "source-C-CXX/29/3347.c"
target datalayout = "e-m:e-p270:32:32-p271:32:32-p272:64:64-i64:64-f80:128-n8:16:32:64-S128"
target triple = "x86_64-pc-linux-gnu"

@.str = private unnamed_addr constant [3 x i8] c"%d\00", align 1

; Function Attrs: nofree nounwind sspstrong uwtable
define dso_local i32 @main() local_unnamed_addr #0 {
  %1 = alloca i32, align 4
  %2 = bitcast i32* %1 to i8*
  call void @llvm.lifetime.start.p0i8(i64 4, i8* nonnull %2) #4
  %3 = call i32 (i8*, ...) @__isoc99_scanf(i8* getelementptr inbounds ([3 x i8], [3 x i8]* @.str, i64 0, i64 0), i32* nonnull %1)
  %4 = load i32, i32* %1, align 4, !tbaa !5
  %5 = icmp slt i32 %4, 1
  br i1 %5, label %79, label %6

6:                                                ; preds = %0
  %7 = icmp ult i32 %4, 8
  br i1 %7, label %54, label %8

8:                                                ; preds = %6
  %9 = and i32 %4, -8
  %10 = or i32 %9, 1
  br label %11

11:                                               ; preds = %11, %8
  %12 = phi i32 [ 0, %8 ], [ %45, %11 ]
  %13 = phi <4 x i32> [ zeroinitializer, %8 ], [ %42, %11 ]
  %14 = phi <4 x i32> [ zeroinitializer, %8 ], [ %44, %11 ]
  %15 = phi <4 x i32> [ zeroinitializer, %8 ], [ %21, %11 ]
  %16 = phi <4 x i32> [ zeroinitializer, %8 ], [ %22, %11 ]
  %17 = phi <4 x i32> [ <i32 1, i32 2, i32 3, i32 4>, %8 ], [ %46, %11 ]
  %18 = add <4 x i32> %17, <i32 4, i32 4, i32 4, i32 4>
  %19 = mul nsw <4 x i32> %17, %17
  %20 = mul nsw <4 x i32> %18, %18
  %21 = add <4 x i32> %15, %19
  %22 = add <4 x i32> %16, %20
  %23 = urem <4 x i32> %17, <i32 7, i32 7, i32 7, i32 7>
  %24 = urem <4 x i32> %18, <i32 7, i32 7, i32 7, i32 7>
  %25 = icmp ne <4 x i32> %23, zeroinitializer
  %26 = icmp ne <4 x i32> %24, zeroinitializer
  %27 = add nsw <4 x i32> %17, <i32 -7, i32 -7, i32 -7, i32 -7>
  %28 = add <4 x i32> %17, <i32 -3, i32 -3, i32 -3, i32 -3>
  %29 = srem <4 x i32> %27, <i32 10, i32 10, i32 10, i32 10>
  %30 = srem <4 x i32> %28, <i32 10, i32 10, i32 10, i32 10>
  %31 = icmp ne <4 x i32> %29, zeroinitializer
  %32 = icmp ne <4 x i32> %30, zeroinitializer
  %33 = add nsw <4 x i32> %17, <i32 -70, i32 -70, i32 -70, i32 -70>
  %34 = add <4 x i32> %17, <i32 -66, i32 -66, i32 -66, i32 -66>
  %35 = icmp ugt <4 x i32> %33, <i32 9, i32 9, i32 9, i32 9>
  %36 = icmp ugt <4 x i32> %34, <i32 9, i32 9, i32 9, i32 9>
  %37 = select <4 x i1> %25, <4 x i1> %31, <4 x i1> zeroinitializer
  %38 = select <4 x i1> %37, <4 x i1> %35, <4 x i1> zeroinitializer
  %39 = select <4 x i1> %26, <4 x i1> %32, <4 x i1> zeroinitializer
  %40 = select <4 x i1> %39, <4 x i1> %36, <4 x i1> zeroinitializer
  %41 = select <4 x i1> %38, <4 x i32> zeroinitializer, <4 x i32> %19
  %42 = add <4 x i32> %13, %41
  %43 = select <4 x i1> %40, <4 x i32> zeroinitializer, <4 x i32> %20
  %44 = add <4 x i32> %14, %43
  %45 = add nuw i32 %12, 8
  %46 = add <4 x i32> %17, <i32 8, i32 8, i32 8, i32 8>
  %47 = icmp eq i32 %45, %9
  br i1 %47, label %48, label %11, !llvm.loop !9

48:                                               ; preds = %11
  %49 = add <4 x i32> %22, %21
  %50 = call i32 @llvm.vector.reduce.add.v4i32(<4 x i32> %49)
  %51 = add <4 x i32> %44, %42
  %52 = call i32 @llvm.vector.reduce.add.v4i32(<4 x i32> %51)
  %53 = icmp eq i32 %4, %9
  br i1 %53, label %79, label %54

54:                                               ; preds = %6, %48
  %55 = phi i32 [ 0, %6 ], [ %52, %48 ]
  %56 = phi i32 [ 0, %6 ], [ %50, %48 ]
  %57 = phi i32 [ 1, %6 ], [ %10, %48 ]
  br label %58

58:                                               ; preds = %54, %75
  %59 = phi i32 [ %76, %75 ], [ %55, %54 ]
  %60 = phi i32 [ %63, %75 ], [ %56, %54 ]
  %61 = phi i32 [ %77, %75 ], [ %57, %54 ]
  %62 = mul nsw i32 %61, %61
  %63 = add nuw nsw i32 %60, %62
  %64 = urem i32 %61, 7
  %65 = icmp eq i32 %64, 0
  br i1 %65, label %73, label %66

66:                                               ; preds = %58
  %67 = add nsw i32 %61, -7
  %68 = srem i32 %67, 10
  %69 = icmp eq i32 %68, 0
  %70 = add nsw i32 %61, -70
  %71 = icmp ult i32 %70, 10
  %72 = select i1 %69, i1 true, i1 %71
  br i1 %72, label %73, label %75

73:                                               ; preds = %66, %58
  %74 = add nsw i32 %59, %62
  br label %75

75:                                               ; preds = %66, %73
  %76 = phi i32 [ %74, %73 ], [ %59, %66 ]
  %77 = add nuw i32 %61, 1
  %78 = icmp eq i32 %61, %4
  br i1 %78, label %79, label %58, !llvm.loop !12

79:                                               ; preds = %75, %48, %0
  %80 = phi i32 [ 0, %0 ], [ %50, %48 ], [ %63, %75 ]
  %81 = phi i32 [ 0, %0 ], [ %52, %48 ], [ %76, %75 ]
  %82 = sub nsw i32 %80, %81
  %83 = call i32 (i8*, ...) @printf(i8* nonnull dereferenceable(1) getelementptr inbounds ([3 x i8], [3 x i8]* @.str, i64 0, i64 0), i32 %82)
  call void @llvm.lifetime.end.p0i8(i64 4, i8* nonnull %2) #4
  ret i32 0
}

; Function Attrs: argmemonly mustprogress nofree nosync nounwind willreturn
declare void @llvm.lifetime.start.p0i8(i64 immarg, i8* nocapture) #1

; Function Attrs: nofree nounwind
declare noundef i32 @__isoc99_scanf(i8* nocapture noundef readonly, ...) local_unnamed_addr #2

; Function Attrs: nofree nounwind
declare noundef i32 @printf(i8* nocapture noundef readonly, ...) local_unnamed_addr #2

; Function Attrs: argmemonly mustprogress nofree nosync nounwind willreturn
declare void @llvm.lifetime.end.p0i8(i64 immarg, i8* nocapture) #1

; Function Attrs: nofree nosync nounwind readnone willreturn
declare i32 @llvm.vector.reduce.add.v4i32(<4 x i32>) #3


!llvm.module.flags = !{!0, !1, !2, !3}
!llvm.ident = !{!4}

!0 = !{i32 1, !"wchar_size", i32 4}
!1 = !{i32 7, !"PIC Level", i32 2}
!2 = !{i32 7, !"PIE Level", i32 2}
!3 = !{i32 7, !"uwtable", i32 1}
!4 = !{!"clang version 13.0.0"}
!5 = !{!6, !6, i64 0}
!6 = !{!"int", !7, i64 0}
!7 = !{!"omnipotent char", !8, i64 0}
!8 = !{!"Simple C/C++ TBAA"}
!9 = distinct !{!9, !10, !11}
!10 = !{!"llvm.loop.mustprogress"}
!11 = !{!"llvm.loop.isvectorized", i32 1}
!12 = distinct !{!12, !10, !13, !11}
!13 = !{!"llvm.loop.unroll.runtime.disable"}
